; Function Attrs: mustprogress uwtable
define internal fastcc void @_ZL3setIN3gmx20SelectionParserValueEEvRPT_S2_(ptr nocapture noundef nonnull writeonly align 8 dereferenceable(8) %0, ptr noundef %1) unnamed_addr #4 {
  %3 = tail call noalias noundef nonnull dereferenceable(80) ptr @_Znwm(i64 noundef 80) #24
  %4 = load i32, ptr %1, align 8
  store i32 %4, ptr %3, align 8
  %5 = getelementptr inbounds i8, ptr %3, i64 8
  %6 = getelementptr inbounds i8, ptr %1, i64 8
  %7 = getelementptr inbounds i8, ptr %1, i64 16
  %8 = load <2 x ptr>, ptr %6, align 8
  store ptr null, ptr %7, align 8
  store <2 x ptr> %8, ptr %5, align 8
  store ptr null, ptr %6, align 8
  %9 = getelementptr inbounds i8, ptr %3, i64 24
  %10 = getelementptr inbounds i8, ptr %1, i64 24
  tail call void @_ZNSt7__cxx1112basic_stringIcSt11char_traitsIcESaIcEEC1EOS4_(ptr noundef nonnull align 8 dereferenceable(32) %9, ptr noundef nonnull align 8 dereferenceable(32) %10) #21
  %11 = getelementptr inbounds i8, ptr %3, i64 56
  %12 = getelementptr inbounds i8, ptr %1, i64 56
  tail call void @llvm.memcpy.p0.p0.i64(ptr noundef nonnull align 8 dereferenceable(20) %11, ptr noundef nonnull align 8 dereferenceable(20) %12, i64 20, i1 false)
  store ptr %3, ptr %0, align 8
  ret void
}